#include <math.h>
#include <stdio.h>
#include <stdlib.h>
#include <string.h>

void main()
{
	int n,k,i,t,j,c,r;
	int a[100000];
	scanf("%d\n",&n);
	for(c=0;c<n;c++)
           scanf("%d",&a[c]);
        scanf("\n");
	scanf("%d",&k);
	int s=0,u=0;
	while(u<n)
	    {
	    	if(a[u]!=k)
		s=s+1;
	    u=u+1;
	    }
	for(i=0;i<n;i++)
	{
		if(a[i]==k)
		{
			j=1;
			while(a[i+j]==k)
			   j=j+1;
		t=i;
		while(t<n)
		{
		a[t]=a[t+j];
		t++;
		}
		}
	}
	
	for(r=0;r<s-1;r++)
      	printf("%d ",a[r]);
	printf("%d",a[s-1]);
}