; ModuleID = '42/205.c'
source_filename = "42/205.c"
target datalayout = "e-m:e-p270:32:32-p271:32:32-p272:64:64-i64:64-f80:128-n8:16:32:64-S128"
target triple = "x86_64-pc-linux-gnu"

@.str = private unnamed_addr constant [4 x i8] c"%d\0A\00", align 1
@.str.1 = private unnamed_addr constant [3 x i8] c"%d\00", align 1
@.str.2 = private unnamed_addr constant [2 x i8] c"\0A\00", align 1
@.str.3 = private unnamed_addr constant [4 x i8] c"%d \00", align 1

; Function Attrs: noinline nounwind uwtable
define dso_local void @main() #0 {
  %1 = alloca i32, align 4
  %2 = alloca i32, align 4
  %3 = alloca i32, align 4
  %4 = alloca i32, align 4
  %5 = alloca i32, align 4
  %6 = alloca i32, align 4
  %7 = alloca i32, align 4
  %8 = alloca [100000 x i32], align 16
  %9 = alloca i32, align 4
  %10 = alloca i32, align 4
  %11 = call i32 (i8*, ...) @__isoc99_scanf(i8* getelementptr inbounds ([4 x i8], [4 x i8]* @.str, i64 0, i64 0), i32* %1)
  store i32 0, i32* %6, align 4
  br label %12

12:                                               ; preds = %21, %0
  %13 = load i32, i32* %6, align 4
  %14 = load i32, i32* %1, align 4
  %15 = icmp slt i32 %13, %14
  br i1 %15, label %16, label %24

16:                                               ; preds = %12
  %17 = load i32, i32* %6, align 4
  %18 = sext i32 %17 to i64
  %19 = getelementptr inbounds [100000 x i32], [100000 x i32]* %8, i64 0, i64 %18
  %20 = call i32 (i8*, ...) @__isoc99_scanf(i8* getelementptr inbounds ([3 x i8], [3 x i8]* @.str.1, i64 0, i64 0), i32* %19)
  br label %21

21:                                               ; preds = %16
  %22 = load i32, i32* %6, align 4
  %23 = add nsw i32 %22, 1
  store i32 %23, i32* %6, align 4
  br label %12

24:                                               ; preds = %12
  %25 = call i32 (i8*, ...) @__isoc99_scanf(i8* getelementptr inbounds ([2 x i8], [2 x i8]* @.str.2, i64 0, i64 0))
  %26 = call i32 (i8*, ...) @__isoc99_scanf(i8* getelementptr inbounds ([3 x i8], [3 x i8]* @.str.1, i64 0, i64 0), i32* %2)
  store i32 0, i32* %9, align 4
  store i32 0, i32* %10, align 4
  br label %27

27:                                               ; preds = %41, %24
  %28 = load i32, i32* %10, align 4
  %29 = load i32, i32* %1, align 4
  %30 = icmp slt i32 %28, %29
  br i1 %30, label %31, label %44

31:                                               ; preds = %27
  %32 = load i32, i32* %10, align 4
  %33 = sext i32 %32 to i64
  %34 = getelementptr inbounds [100000 x i32], [100000 x i32]* %8, i64 0, i64 %33
  %35 = load i32, i32* %34, align 4
  %36 = load i32, i32* %2, align 4
  %37 = icmp ne i32 %35, %36
  br i1 %37, label %38, label %41

38:                                               ; preds = %31
  %39 = load i32, i32* %9, align 4
  %40 = add nsw i32 %39, 1
  store i32 %40, i32* %9, align 4
  br label %41

41:                                               ; preds = %38, %31
  %42 = load i32, i32* %10, align 4
  %43 = add nsw i32 %42, 1
  store i32 %43, i32* %10, align 4
  br label %27

44:                                               ; preds = %27
  store i32 0, i32* %3, align 4
  br label %45

45:                                               ; preds = %89, %44
  %46 = load i32, i32* %3, align 4
  %47 = load i32, i32* %1, align 4
  %48 = icmp slt i32 %46, %47
  br i1 %48, label %49, label %92

49:                                               ; preds = %45
  %50 = load i32, i32* %3, align 4
  %51 = sext i32 %50 to i64
  %52 = getelementptr inbounds [100000 x i32], [100000 x i32]* %8, i64 0, i64 %51
  %53 = load i32, i32* %52, align 4
  %54 = load i32, i32* %2, align 4
  %55 = icmp eq i32 %53, %54
  br i1 %55, label %56, label %88

56:                                               ; preds = %49
  store i32 1, i32* %5, align 4
  br label %57

57:                                               ; preds = %66, %56
  %58 = load i32, i32* %3, align 4
  %59 = load i32, i32* %5, align 4
  %60 = add nsw i32 %58, %59
  %61 = sext i32 %60 to i64
  %62 = getelementptr inbounds [100000 x i32], [100000 x i32]* %8, i64 0, i64 %61
  %63 = load i32, i32* %62, align 4
  %64 = load i32, i32* %2, align 4
  %65 = icmp eq i32 %63, %64
  br i1 %65, label %66, label %69

66:                                               ; preds = %57
  %67 = load i32, i32* %5, align 4
  %68 = add nsw i32 %67, 1
  store i32 %68, i32* %5, align 4
  br label %57

69:                                               ; preds = %57
  %70 = load i32, i32* %3, align 4
  store i32 %70, i32* %4, align 4
  br label %71

71:                                               ; preds = %75, %69
  %72 = load i32, i32* %4, align 4
  %73 = load i32, i32* %1, align 4
  %74 = icmp slt i32 %72, %73
  br i1 %74, label %75, label %87

75:                                               ; preds = %71
  %76 = load i32, i32* %4, align 4
  %77 = load i32, i32* %5, align 4
  %78 = add nsw i32 %76, %77
  %79 = sext i32 %78 to i64
  %80 = getelementptr inbounds [100000 x i32], [100000 x i32]* %8, i64 0, i64 %79
  %81 = load i32, i32* %80, align 4
  %82 = load i32, i32* %4, align 4
  %83 = sext i32 %82 to i64
  %84 = getelementptr inbounds [100000 x i32], [100000 x i32]* %8, i64 0, i64 %83
  store i32 %81, i32* %84, align 4
  %85 = load i32, i32* %4, align 4
  %86 = add nsw i32 %85, 1
  store i32 %86, i32* %4, align 4
  br label %71

87:                                               ; preds = %71
  br label %88

88:                                               ; preds = %87, %49
  br label %89

89:                                               ; preds = %88
  %90 = load i32, i32* %3, align 4
  %91 = add nsw i32 %90, 1
  store i32 %91, i32* %3, align 4
  br label %45

92:                                               ; preds = %45
  store i32 0, i32* %7, align 4
  br label %93

93:                                               ; preds = %104, %92
  %94 = load i32, i32* %7, align 4
  %95 = load i32, i32* %9, align 4
  %96 = sub nsw i32 %95, 1
  %97 = icmp slt i32 %94, %96
  br i1 %97, label %98, label %107

98:                                               ; preds = %93
  %99 = load i32, i32* %7, align 4
  %100 = sext i32 %99 to i64
  %101 = getelementptr inbounds [100000 x i32], [100000 x i32]* %8, i64 0, i64 %100
  %102 = load i32, i32* %101, align 4
  %103 = call i32 (i8*, ...) @printf(i8* getelementptr inbounds ([4 x i8], [4 x i8]* @.str.3, i64 0, i64 0), i32 %102)
  br label %104

104:                                              ; preds = %98
  %105 = load i32, i32* %7, align 4
  %106 = add nsw i32 %105, 1
  store i32 %106, i32* %7, align 4
  br label %93

107:                                              ; preds = %93
  %108 = load i32, i32* %9, align 4
  %109 = sub nsw i32 %108, 1
  %110 = sext i32 %109 to i64
  %111 = getelementptr inbounds [100000 x i32], [100000 x i32]* %8, i64 0, i64 %110
  %112 = load i32, i32* %111, align 4
  %113 = call i32 (i8*, ...) @printf(i8* getelementptr inbounds ([3 x i8], [3 x i8]* @.str.1, i64 0, i64 0), i32 %112)
  ret void
}

declare dso_local i32 @__isoc99_scanf(i8*, ...) #1

declare dso_local i32 @printf(i8*, ...) #1


!llvm.module.flags = !{!0}
!llvm.ident = !{!1}

!0 = !{i32 1, !"wchar_size", i32 4}
!1 = !{!"clang version 10.0.0-4ubuntu1 "}
